; Function Attrs: nounwind uwtable
define ptr @l_StateRefT_x27_run___rarg(ptr noundef %0, ptr noundef %1, ptr readnone captures(none) %2, ptr noundef %3, ptr noundef %4) #0 {
  %6 = getelementptr inbounds nuw i8, ptr %0, i64 16
  %7 = load ptr, ptr %6, align 8, !tbaa !4
  %8 = ptrtoint ptr %7 to i64
  %9 = and i64 %8, 1
  %.not = icmp eq i64 %9, 0
  br i1 %.not, label %10, label %lean_inc.exit23

10:                                               ; preds = %5
  %.val.i = load i32, ptr %7, align 4, !tbaa !8
  %11 = icmp sgt i32 %.val.i, 0
  br i1 %11, label %12, label %14, !prof !11

12:                                               ; preds = %10
  %13 = add nuw i32 %.val.i, 1
  store i32 %13, ptr %7, align 4, !tbaa !8
  br label %lean_inc.exit23

14:                                               ; preds = %10
  %.not.i = icmp eq i32 %.val.i, 0
  br i1 %.not.i, label %lean_inc.exit23, label %15

15:                                               ; preds = %14
  tail call void @lean_inc_ref_cold(ptr noundef nonnull %7) #4
  br label %lean_inc.exit23

lean_inc.exit23:                                  ; preds = %15, %14, %12, %5
  tail call void @lean_inc_heartbeat() #4
  %16 = tail call noalias ptr @mi_malloc_small(i64 noundef 48) #4
  %17 = icmp eq ptr %16, null
  br i1 %17, label %18, label %lean_alloc_closure.exit

18:                                               ; preds = %lean_inc.exit23
  tail call void @lean_internal_panic_out_of_memory() #5
  unreachable

lean_alloc_closure.exit:                          ; preds = %lean_inc.exit23
  %19 = getelementptr inbounds nuw i8, ptr %16, i64 4
  store i32 1, ptr %16, align 4, !tbaa !8
  store i32 -184549328, ptr %19, align 4
  %20 = getelementptr inbounds nuw i8, ptr %16, i64 8
  store ptr @l_ST_Prim_mkRef___boxed, ptr %20, align 8, !tbaa !4
  %21 = getelementptr inbounds nuw i8, ptr %16, i64 16
  store i16 4, ptr %21, align 8, !tbaa !12
  %22 = getelementptr inbounds nuw i8, ptr %16, i64 18
  store i16 3, ptr %22, align 2, !tbaa !12
  %23 = getelementptr inbounds nuw i8, ptr %16, i64 24
  store ptr inttoptr (i64 1 to ptr), ptr %23, align 8, !tbaa !4
  %24 = getelementptr inbounds nuw i8, ptr %16, i64 32
  store ptr inttoptr (i64 1 to ptr), ptr %24, align 8, !tbaa !4
  %25 = getelementptr inbounds nuw i8, ptr %16, i64 40
  store ptr %4, ptr %25, align 8, !tbaa !4
  %26 = ptrtoint ptr %1 to i64
  %27 = and i64 %26, 1
  %.not31 = icmp eq i64 %27, 0
  br i1 %.not31, label %28, label %lean_inc.exit22

28:                                               ; preds = %lean_alloc_closure.exit
  %.val.i24 = load i32, ptr %1, align 4, !tbaa !8
  %29 = icmp sgt i32 %.val.i24, 0
  br i1 %29, label %30, label %32, !prof !11

30:                                               ; preds = %28
  %31 = add nuw i32 %.val.i24, 1
  store i32 %31, ptr %1, align 4, !tbaa !8
  br label %lean_inc.exit22

32:                                               ; preds = %28
  %.not.i25 = icmp eq i32 %.val.i24, 0
  br i1 %.not.i25, label %lean_inc.exit22, label %33

33:                                               ; preds = %32
  tail call void @lean_inc_ref_cold(ptr noundef nonnull %1) #4
  br label %lean_inc.exit22

lean_inc.exit22:                                  ; preds = %33, %32, %30, %lean_alloc_closure.exit
  %34 = tail call ptr @lean_apply_2(ptr noundef %1, ptr noundef nonnull inttoptr (i64 1 to ptr), ptr noundef nonnull %16) #4
  br i1 %.not, label %35, label %lean_inc.exit

35:                                               ; preds = %lean_inc.exit22
  %.val.i27 = load i32, ptr %7, align 4, !tbaa !8
  %36 = icmp sgt i32 %.val.i27, 0
  br i1 %36, label %37, label %39, !prof !11

37:                                               ; preds = %35
  %38 = add nuw i32 %.val.i27, 1
  store i32 %38, ptr %7, align 4, !tbaa !8
  br label %lean_inc.exit

39:                                               ; preds = %35
  %.not.i28 = icmp eq i32 %.val.i27, 0
  br i1 %.not.i28, label %lean_inc.exit, label %40

40:                                               ; preds = %39
  tail call void @lean_inc_ref_cold(ptr noundef nonnull %7) #4
  br label %lean_inc.exit

lean_inc.exit:                                    ; preds = %40, %39, %37, %lean_inc.exit22
  tail call void @lean_inc_heartbeat() #4
  %41 = tail call noalias ptr @mi_malloc_small(i64 noundef 56) #4
  %42 = icmp eq ptr %41, null
  br i1 %42, label %43, label %lean_alloc_closure.exit30

43:                                               ; preds = %lean_inc.exit
  tail call void @lean_internal_panic_out_of_memory() #5
  unreachable

lean_alloc_closure.exit30:                        ; preds = %lean_inc.exit
  %44 = getelementptr inbounds nuw i8, ptr %41, i64 4
  store i32 1, ptr %41, align 4, !tbaa !8
  store i32 -184549320, ptr %44, align 4
  %45 = getelementptr inbounds nuw i8, ptr %41, i64 8
  store ptr @l_StateRefT_x27_run___rarg___lambda__3, ptr %45, align 8, !tbaa !4
  %46 = getelementptr inbounds nuw i8, ptr %41, i64 16
  store i16 5, ptr %46, align 8, !tbaa !12
  %47 = getelementptr inbounds nuw i8, ptr %41, i64 18
  store i16 4, ptr %47, align 2, !tbaa !12
  %48 = getelementptr inbounds nuw i8, ptr %41, i64 24
  store ptr %3, ptr %48, align 8, !tbaa !4
  %49 = getelementptr inbounds nuw i8, ptr %41, i64 32
  store ptr %1, ptr %49, align 8, !tbaa !4
  %50 = getelementptr inbounds nuw i8, ptr %41, i64 40
  store ptr %0, ptr %50, align 8, !tbaa !4
  %51 = getelementptr inbounds nuw i8, ptr %41, i64 48
  store ptr %7, ptr %51, align 8, !tbaa !4
  %52 = tail call ptr @lean_apply_4(ptr noundef %7, ptr noundef nonnull inttoptr (i64 1 to ptr), ptr noundef nonnull inttoptr (i64 1 to ptr), ptr noundef %34, ptr noundef nonnull %41) #4
  ret ptr %52
}